target datalayout = "e-m:e-p270:32:32-p271:32:32-p272:64:64-i64:64-i128:128-f80:128-n8:16:32:64-S128"
target triple = "x86_64-pc-linux-gnu"

%"class.std::basic_string_view" = type { i64, ptr }
%class.anon.45 = type { ptr }

; Function Attrs: inlinehint mustprogress uwtable
define internal noundef i32 @"_ZZN14ArgumentParser8Instance4BindERSt6vectorIS1_INSt7__cxx1112basic_stringIcSt11char_traitsIcESaIcEEESaIS7_EESaIS9_EEENK3$_0clESt17basic_string_viewIcS5_E"(ptr noundef nonnull align 8 dereferenceable(8) %0, i64 %1, ptr %2) #6 align 2 {
  %4 = alloca %"class.std::basic_string_view", align 8
  %5 = alloca ptr, align 8
  %6 = getelementptr inbounds nuw { i64, ptr }, ptr %4, i32 0, i32 0
  store i64 %1, ptr %6, align 8
  %7 = getelementptr inbounds nuw { i64, ptr }, ptr %4, i32 0, i32 1
  store ptr %2, ptr %7, align 8
  store ptr %0, ptr %5, align 8, !tbaa !16
  %8 = load ptr, ptr %5, align 8
  %9 = getelementptr inbounds nuw %class.anon.45, ptr %8, i32 0, i32 0
  %10 = load ptr, ptr %9, align 8, !tbaa !346
  %11 = call noundef nonnull align 8 dereferenceable(32) ptr @_ZNSt6vectorINSt7__cxx1112basic_stringIcSt11char_traitsIcESaIcEEESaIS5_EE12emplace_backIJRSt17basic_string_viewIcS3_EEEERS5_DpOT_(ptr noundef nonnull align 8 dereferenceable(24) %10, ptr noundef nonnull align 8 dereferenceable(16) %4)
  ret i32 1
}

; Function Attrs: mustprogress nounwind uwtable
define linkonce_odr dso_local noundef ptr @_ZNKSt9_Any_data9_M_accessEv(ptr noundef nonnull align 8 dereferenceable(16) %0) #7 comdat align 2 {
  %2 = alloca ptr, align 8
  store ptr %0, ptr %2, align 8, !tbaa !250
  %3 = load ptr, ptr %2, align 8
  %4 = getelementptr inbounds [16 x i8], ptr %3, i64 0, i64 0
  ret ptr %4
}

; Function Attrs: mustprogress uwtable
define internal noundef i32 @"_ZSt13__invoke_implIN14ArgumentParser8ContinueERZNS0_8Instance4BindERSt6vectorIS3_INSt7__cxx1112basic_stringIcSt11char_traitsIcESaIcEEESaIS9_EESaISB_EEE3$_0JSt17basic_string_viewIcS7_EEET_St14__invoke_otherOT0_DpOT1_"(ptr noundef nonnull align 8 dereferenceable(8) %0, ptr noundef nonnull align 8 dereferenceable(16) %1) #5 {
  %3 = alloca ptr, align 8
  %4 = alloca ptr, align 8
  %5 = alloca %"class.std::basic_string_view", align 8
  store ptr %0, ptr %3, align 8, !tbaa !16
  store ptr %1, ptr %4, align 8, !tbaa !27
  %6 = load ptr, ptr %3, align 8, !tbaa !16
  %7 = load ptr, ptr %4, align 8, !tbaa !27
  call void @llvm.memcpy.p0.p0.i64(ptr align 8 %5, ptr align 8 %7, i64 16, i1 false), !tbaa.struct !22
  %8 = getelementptr inbounds nuw { i64, ptr }, ptr %5, i32 0, i32 0
  %9 = load i64, ptr %8, align 8
  %10 = getelementptr inbounds nuw { i64, ptr }, ptr %5, i32 0, i32 1
  %11 = load ptr, ptr %10, align 8
  %12 = call noundef i32 @"_ZZN14ArgumentParser8Instance4BindERSt6vectorIS1_INSt7__cxx1112basic_stringIcSt11char_traitsIcESaIcEEESaIS7_EESaIS9_EEENK3$_0clESt17basic_string_viewIcS5_E"(ptr noundef nonnull align 8 dereferenceable(8) %6, i64 %9, ptr %11)
  ret i32 %12
}

; Function Attrs: mustprogress nounwind uwtable
define internal noundef nonnull align 8 dereferenceable(8) ptr @"_ZNKSt9_Any_data9_M_accessIZN14ArgumentParser8Instance4BindERSt6vectorIS3_INSt7__cxx1112basic_stringIcSt11char_traitsIcESaIcEEESaIS9_EESaISB_EEE3$_0EERKT_v"(ptr noundef nonnull align 8 dereferenceable(16) %0) #7 align 2 {
  %2 = alloca ptr, align 8
  store ptr %0, ptr %2, align 8, !tbaa !250
  %3 = load ptr, ptr %2, align 8
  %4 = call noundef ptr @_ZNKSt9_Any_data9_M_accessEv(ptr noundef nonnull align 8 dereferenceable(16) %3) #3
  ret ptr %4
}

; Function Attrs: mustprogress uwtable
define internal noundef i32 @"_ZSt10__invoke_rIN14ArgumentParser8ContinueERZNS0_8Instance4BindERSt6vectorIS3_INSt7__cxx1112basic_stringIcSt11char_traitsIcESaIcEEESaIS9_EESaISB_EEE3$_0JSt17basic_string_viewIcS7_EEENSt9enable_ifIX16is_invocable_r_vIT_T0_DpT1_EESK_E4typeEOSL_DpOSM_"(ptr noundef nonnull align 8 dereferenceable(8) %0, ptr noundef nonnull align 8 dereferenceable(16) %1) #5 {
  %3 = alloca ptr, align 8
  %4 = alloca ptr, align 8
  store ptr %0, ptr %3, align 8, !tbaa !16
  store ptr %1, ptr %4, align 8, !tbaa !27
  %5 = load ptr, ptr %3, align 8, !tbaa !16
  %6 = load ptr, ptr %4, align 8, !tbaa !27
  %7 = call noundef i32 @"_ZSt13__invoke_implIN14ArgumentParser8ContinueERZNS0_8Instance4BindERSt6vectorIS3_INSt7__cxx1112basic_stringIcSt11char_traitsIcESaIcEEESaIS9_EESaISB_EEE3$_0JSt17basic_string_viewIcS7_EEET_St14__invoke_otherOT0_DpOT1_"(ptr noundef nonnull align 8 dereferenceable(8) %5, ptr noundef nonnull align 8 dereferenceable(16) %6)
  ret i32 %7
}

; Function Attrs: mustprogress nounwind uwtable
define internal noundef ptr @"_ZNSt14_Function_base13_Base_managerIZN14ArgumentParser8Instance4BindERSt6vectorIS3_INSt7__cxx1112basic_stringIcSt11char_traitsIcESaIcEEESaIS9_EESaISB_EEE3$_0E14_M_get_pointerERKSt9_Any_data"(ptr noundef nonnull align 8 dereferenceable(16) %0) #7 align 2 {
  %2 = alloca ptr, align 8
  %3 = alloca ptr, align 8
  store ptr %0, ptr %2, align 8, !tbaa !250
  call void @llvm.lifetime.start.p0(i64 8, ptr %3) #3
  %4 = load ptr, ptr %2, align 8, !tbaa !250
  %5 = call noundef nonnull align 8 dereferenceable(8) ptr @"_ZNKSt9_Any_data9_M_accessIZN14ArgumentParser8Instance4BindERSt6vectorIS3_INSt7__cxx1112basic_stringIcSt11char_traitsIcESaIcEEESaIS9_EESaISB_EEE3$_0EERKT_v"(ptr noundef nonnull align 8 dereferenceable(16) %4) #3
  store ptr %5, ptr %3, align 8, !tbaa !16
  %6 = load ptr, ptr %3, align 8, !tbaa !16
  call void @llvm.lifetime.end.p0(i64 8, ptr %3) #3
  ret ptr %6
}

; Function Attrs: mustprogress uwtable
define internal noundef i32 @"_ZNSt17_Function_handlerIFN14ArgumentParser8ContinueESt17basic_string_viewIcSt11char_traitsIcEEEZNS0_8Instance4BindERSt6vectorIS8_INSt7__cxx1112basic_stringIcS4_SaIcEEESaISC_EESaISE_EEE3$_0E9_M_invokeERKSt9_Any_dataOS5_"(ptr noundef nonnull align 8 dereferenceable(16) %0, ptr noundef nonnull align 8 dereferenceable(16) %1) #5 align 2 {
  %3 = alloca ptr, align 8
  %4 = alloca ptr, align 8
  store ptr %0, ptr %3, align 8, !tbaa !250
  store ptr %1, ptr %4, align 8, !tbaa !27
  %5 = load ptr, ptr %3, align 8, !tbaa !250
  %6 = call noundef ptr @"_ZNSt14_Function_base13_Base_managerIZN14ArgumentParser8Instance4BindERSt6vectorIS3_INSt7__cxx1112basic_stringIcSt11char_traitsIcESaIcEEESaIS9_EESaISB_EEE3$_0E14_M_get_pointerERKSt9_Any_data"(ptr noundef nonnull align 8 dereferenceable(16) %5) #3
  %7 = load ptr, ptr %4, align 8, !tbaa !27
  %8 = call noundef i32 @"_ZSt10__invoke_rIN14ArgumentParser8ContinueERZNS0_8Instance4BindERSt6vectorIS3_INSt7__cxx1112basic_stringIcSt11char_traitsIcESaIcEEESaIS9_EESaISB_EEE3$_0JSt17basic_string_viewIcS7_EEENSt9enable_ifIX16is_invocable_r_vIT_T0_DpT1_EESK_E4typeEOSL_DpOSM_"(ptr noundef nonnull align 8 dereferenceable(8) %6, ptr noundef nonnull align 8 dereferenceable(16) %7)
  ret i32 %8
}